******************************************************************************
                  TI ARM Linker PC v5.2.2                      
******************************************************************************
>> Linked Mon Aug 31 23:38:54 2015

OUTPUT FILE NAME:   <MSP432_Swarm_CCS.out>
ENTRY POINT SYMBOL: "_c_int00"  address: 000053b5


MEMORY CONFIGURATION

         name            origin    length      used     unused   attr    fill
----------------------  --------  ---------  --------  --------  ----  --------
  MAIN                  00000000   00040000  00005907  0003a6f9  R  X
  INFO                  00200000   00004000  00000000  00004000  R  X
  SRAM_CODE             01000000   00010000  00000000  00010000  RW X
  SRAM_DATA             20000000   00010000  000007b3  0000f84d  RW  


SEGMENT ALLOCATION MAP

run origin  load origin   length   init length attrs members
----------  ----------- ---------- ----------- ----- -------
00000000    00000000    00005908   00005908    r-x
  00000000    00000000    00000144   00000144    r-- .intvecs
  00000144    00000144    0000564e   0000564e    r-x .text
  00005792    00005792    00000101   00000101    r-- .const
  00005894    00005894    00000004   00000004    r-- .init_array
  00005898    00005898    00000070   00000070    r-- .cinit
20000000    20000000    000005b3   00000000    rw-
  20000000    20000000    00000400   00000000    rw- .sysmem
  20000400    20000400    0000015e   00000000    rw- .data
  2000055e    2000055e    00000055   00000000    rw- .bss
2000fe00    2000fe00    00000200   00000000    rw-
  2000fe00    2000fe00    00000200   00000000    rw- .stack


SECTION ALLOCATION MAP

 output                                  attributes/
section   page    origin      length       input sections
--------  ----  ----------  ----------   ----------------
.intvecs   0    00000000    00000144     
                  00000000    00000144     msp432_startup_ccs.obj (.intvecs)

.text      0    00000144    0000564e     
                  00000144    00002780     MPU6050.obj (.text)
                  000028c4    000010ba     rtsv7M4_T_le_v4SPD16_eabi.lib : _printfi.obj (.text)
                  0000397e    00000002     --HOLE-- [fill = 0]
                  00003980    00000718     I2Cdev.obj (.text)
                  00004098    000003dc     rtsv7M4_T_le_v4SPD16_eabi.lib : memory.obj (.text)
                  00004474    00000214     main.obj (.text)
                  00004688    000001f4     rtsv7M4_T_le_v4SPD16_eabi.lib : ull_div_t2.obj (.text)
                  0000487c    000001b6                                   : fd_add_t2.obj (.text)
                  00004a32    00000136                                   : fd_div_t2.obj (.text)
                  00004b68    00000110                                   : xdscale.obj (.text)
                  00004c78    000000fc                                   : fd_mul_t2.obj (.text)
                  00004d74    000000be                                   : xdnorm.obj (.text)
                  00004e32    00000002     --HOLE-- [fill = 0]
                  00004e34    000000ac     UART_A0.obj (.text)
                  00004ee0    0000009c     rtsv7M4_T_le_v4SPD16_eabi.lib : memcpy_t2.obj (.text)
                  00004f7c    00000086                                   : fd_cmp_t2.obj (.text:__aeabi_cdcmple)
                  00005002    00000086                                   : fd_cmp_t2.obj (.text:__aeabi_cdrcmple)
                  00005088    0000007a                                   : memset_t2.obj (.text)
                  00005102    00000002     --HOLE-- [fill = 0]
                  00005104    0000006c                                   : autoinit.obj (.text)
                  00005170    0000006a                                   : copy_decompress_rle.obj (.text)
                  000051da    00000002     --HOLE-- [fill = 0]
                  000051dc    00000068     msp432_startup_ccs.obj (.text)
                  00005244    00000066     rtsv7M4_T_le_v4SPD16_eabi.lib : xdunscal.obj (.text)
                  000052aa    00000002     --HOLE-- [fill = 0]
                  000052ac    00000060                                   : sprintf.obj (.text)
                  0000530c    00000056                                   : ltoa.obj (.text)
                  00005362    00000052                                   : ldexp.obj (.text)
                  000053b4    00000050                                   : boot.obj (.text)
                  00005404    0000004c                                   : atoi.obj (.text)
                  00005450    0000004c                                   : cpy_tbl.obj (.text)
                  0000549c    00000048                                   : fd_toi_t2.obj (.text)
                  000054e4    00000044                                   : exit.obj (.text)
                  00005528    00000040                                   : signal.obj (.text)
                  00005568    00000034                                   : feraiseexcept.obj (.text)
                  0000559c    00000030                                   : xdclass.obj (.text)
                  000055cc    00000030                                   : xferaise.obj (.text)
                  000055fc    0000002e                                   : i_tofd_t2.obj (.text)
                  0000562a    0000002e                                   : raise.obj (.text)
                  00005658    0000002a                                   : frexp.obj (.text)
                  00005682    00000022                                   : memcmp.obj (.text)
                  000056a4    0000001c                                   : memccpy.obj (.text)
                  000056c0    00000018     I2Cdev.obj (.text:_ZN6I2Cdev11isrCompleteEb)
                  000056d8    00000018     I2Cdev.obj (.text:_ZN6I2Cdev8setRxBufEh)
                  000056f0    00000018     I2Cdev.obj (.text:_ZN6I2Cdev8setTxBufEh)
                  00005708    00000018     rtsv7M4_T_le_v4SPD16_eabi.lib : args_main.obj (.text)
                  00005720    00000016                                   : strchr.obj (.text)
                  00005736    00000002     --HOLE-- [fill = 0]
                  00005738    00000014                                   : _lock.obj (.text)
                  0000574c    00000014                                   : strlen.obj (.text)
                  00005760    0000000e                                   : copy_decompress_none.obj (.text:decompress:none)
                  0000576e    00000002     --HOLE-- [fill = 0]
                  00005770    0000000c     I2Cdev.obj (.text:_ZN6I2Cdev8getTxBufEv)
                  0000577c    0000000c     rtsv7M4_T_le_v4SPD16_eabi.lib : copy_zero_init.obj (.text:decompress:ZI)
                  00005788    00000006                                   : copy_decompress_rle.obj (.text:decompress:rle24)
                  0000578e    00000004                                   : pre_init.obj (.text)

.const     0    00005792    00000101     
                  00005792    00000101     rtsv7M4_T_le_v4SPD16_eabi.lib : ctype.obj (.const:.string:_ctypes_)

.init_array 
*          0    00005894    00000004     
                  00005894    00000004     main.obj (.init_array)

.cinit     0    00005898    00000070     
                  00005898    0000004c     (.cinit..data.load) [load image, compression = rle]
                  000058e4    0000000c     (__TI_handler_table)
                  000058f0    00000008     (.cinit..bss.load) [load image, compression = zero_init]
                  000058f8    00000010     (__TI_cinit_table)

.sysmem    0    20000000    00000400     UNINITIALIZED
                  20000000    00000008     rtsv7M4_T_le_v4SPD16_eabi.lib : memory.obj (.sysmem)
                  20000008    000003f8     --HOLE--

.data      0    20000400    0000015e     UNINITIALIZED
                  20000400    000000b0     rtsv7M4_T_le_v4SPD16_eabi.lib : signal.obj (.data:sigtable)
                  200004b0    00000080                                   : xvalues.obj (.data)
                  20000530    0000000c                                   : memory.obj (.data)
                  2000053c    00000008                                   : _lock.obj (.data)
                  20000544    00000008                                   : exit.obj (.data)
                  2000054c    00000008                                   : feraiseexcept.obj (.data)
                  20000554    00000004                                   : errno.obj (.data)
                  20000558    00000004                                   : stkdepth_vars.obj (.data)
                  2000055c    00000002     I2Cdev.obj (.data)

.TI.persistent 
*          0    20000400    00000000     UNINITIALIZED

.bss       0    2000055e    00000055     UNINITIALIZED
                  2000055e    00000034     main.obj (.bss:debugOutput)
                  20000592    00000011     main.obj (.bss)
                  200005a3    00000001     (.common:isrComplete_)
                  200005a4    00000002     (.common:ax)
                  200005a6    00000002     (.common:ay)
                  200005a8    00000002     (.common:az)
                  200005aa    00000002     (.common:gx)
                  200005ac    00000002     (.common:gy)
                  200005ae    00000002     (.common:gz)
                  200005b0    00000001     (.common:rxbuf)
                  200005b1    00000001     (.common:testVar)
                  200005b2    00000001     (.common:txbuf)

.TI.noinit 
*          0    2000055e    00000000     UNINITIALIZED

.stack     0    2000fe00    00000200     UNINITIALIZED
                  2000fe00    00000200     --HOLE--


LINKER GENERATED COPY TABLES

__TI_cinit_table @ 000058f8 records: 2, size/record: 8, table size: 16
	.data: load addr=00005898, load size=0000004c bytes, run addr=20000400, run size=0000015e bytes, compression=rle
	.bss: load addr=000058f0, load size=00000008 bytes, run addr=2000055e, run size=00000055 bytes, compression=zero_init


LINKER GENERATED HANDLER TABLE

__TI_handler_table @ 000058e4 records: 3, size/record: 4, table size: 12
	index: 0, handler: __TI_decompress_rle24
	index: 1, handler: __TI_decompress_none
	index: 2, handler: __TI_zero_init


GLOBAL SYMBOLS: SORTED ALPHABETICALLY BY Name 

address   name                                               
-------   ----                                               
000054e5  C$$EXIT                                            
00005894  SHT$$INIT_ARRAY$$Base                              
00005898  SHT$$INIT_ARRAY$$Limit                             
4000480c  WDTCTL_SYM                                         
0000559d  _Dclass                                            
200004b0  _Denorm                                            
00004d75  _Dnorm                                             
00004b69  _Dscale                                            
00005245  _Dunscale                                          
200004c0  _Eps                                               
20000554  _Errno                                             
2000054c  _Fenv                                              
000055cd  _Feraise                                           
200004d0  _Hugeval                                           
200004e0  _Inf                                               
200004f0  _Nan                                               
20000510  _Rteps                                             
20000500  _Snan                                              
20000550  _Tls_setup__Fenv                                   
20000520  _Xbig                                              
0000454b  _Z20MPU9150_setupCompassv                          
00003ea1  _ZN6I2Cdev10writeBitsWEhhhht                       
00003f77  _ZN6I2Cdev10writeBytesEhhhPh                       
00003fb5  _ZN6I2Cdev10writeWordsEhhhPt                       
000056c1  _ZN6I2Cdev11isrCompleteEb                          
2000055c  _ZN6I2Cdev11readTimeoutE                           
000039cd  _ZN6I2Cdev3ISREt                                   
00003a37  _ZN6I2Cdev7readBitEhhhPht                          
00005771  _ZN6I2Cdev8getTxBufEv                              
00003a77  _ZN6I2Cdev8readBitWEhhhPtt                         
00003ab7  _ZN6I2Cdev8readBitsEhhhhPht                        
00003bb3  _ZN6I2Cdev8readByteEhhPht                          
00003be1  _ZN6I2Cdev8readWordEhhPtt                          
000056d9  _ZN6I2Cdev8setRxBufEh                              
000056f1  _ZN6I2Cdev8setTxBufEh                              
00003d51  _ZN6I2Cdev8writeBitEhhhh                           
00003b35  _ZN6I2Cdev9readBitsWEhhhhPtt                       
00003c0f  _ZN6I2Cdev9readBytesEhhhPht                        
00003c3d  _ZN6I2Cdev9readWordsEhhhPtt                        
00003daf  _ZN6I2Cdev9writeBitWEhhht                          
00003e0f  _ZN6I2Cdev9writeBitsEhhhhh                         
00003f33  _ZN6I2Cdev9writeByteEhhh                           
00003f55  _ZN6I2Cdev9writeWordEhht                           
00003981  _ZN6I2CdevC1Ev                                     
00003981  _ZN6I2CdevC2Ev                                     
00001425  _ZN7MPU605010getMotion6EPsS0_S0_S0_S0_S0_          
0000136d  _ZN7MPU605010getMotion9EPsS0_S0_S0_S0_S0_S0_S0_S0_ 
00000175  _ZN7MPU605010initializeEv                          
00000413  _ZN7MPU605011getDHPFModeEv                         
0000028d  _ZN7MPU605011getDLPFModeEv                         
00001ed3  _ZN7MPU605011getDeviceIDEv                         
00001e77  _ZN7MPU605011getFIFOByteEv                         
000015b3  _ZN7MPU605011getRotationEPsS0_S0_                  
00000437  _ZN7MPU605011setDHPFModeEh                         
000002b1  _ZN7MPU605011setDLPFModeEh                         
00001e93  _ZN7MPU605011setFIFOByteEh                         
00001eab  _ZN7MPU605012getFIFOBytesEPhh                      
00001e4d  _ZN7MPU605012getFIFOCountEv                        
0000126d  _ZN7MPU605012getIntStatusEv                        
0000160b  _ZN7MPU605012getRotationXEv                        
00001635  _ZN7MPU605012getRotationYEv                        
0000165f  _ZN7MPU605012getRotationZEv                        
00002001  _ZN7MPU605012getXFineGainEv                        
00002037  _ZN7MPU605012getYFineGainEv                        
0000206d  _ZN7MPU605012getZFineGainEv                        
00001b51  _ZN7MPU605012resetSensorsEv                        
0000201f  _ZN7MPU605012setXFineGainEa                        
00002055  _ZN7MPU605012setYFineGainEa                        
0000208b  _ZN7MPU605012setZFineGainEa                        
00002859  _ZN7MPU605013getDMPConfig1Ev                       
0000288d  _ZN7MPU605013getDMPConfig2Ev                       
000023e5  _ZN7MPU605013getDMPEnabledEv                       
000010b5  _ZN7MPU605013getIntEnabledEv                       
00000e8b  _ZN7MPU605013getSlave0NackEv                       
00000e65  _ZN7MPU605013getSlave1NackEv                       
00000e3f  _ZN7MPU605013getSlave2NackEv                       
00000e19  _ZN7MPU605013getSlave3NackEv                       
00000df3  _ZN7MPU605013getSlave4NackEv                       
00002875  _ZN7MPU605013setDMPConfig1Eh                       
000028a9  _ZN7MPU605013setDMPConfig2Eh                       
0000240b  _ZN7MPU605013setDMPEnabledEb                       
000010d1  _ZN7MPU605013setIntEnabledEh                       
00002439  _ZN7MPU605013setMemoryBankEhbb                     
00000231  _ZN7MPU605014checkMagStatusEv                      
00001c45  _ZN7MPU605014getClockSourceEv                      
00001a8f  _ZN7MPU605014getFIFOEnabledEv                      
00001589  _ZN7MPU605014getTemperatureEv                      
00001f31  _ZN7MPU605014getXGyroOffsetEv                      
00001f75  _ZN7MPU605014getYGyroOffsetEv                      
00001fb9  _ZN7MPU605014getZGyroOffsetEv                      
000024a1  _ZN7MPU605014readMemoryByteEv                      
00001b3d  _ZN7MPU605014resetI2CMasterEv                      
00001c69  _ZN7MPU605014setClockSourceEh                      
00001ab5  _ZN7MPU605014setFIFOEnabledEb                      
00001f57  _ZN7MPU605014setXGyroOffsetEa                      
00001f9b  _ZN7MPU605014setYGyroOffsetEa                      
00001fdf  _ZN7MPU605014setZGyroOffsetEa                      
0000019b  _ZN7MPU605014testConnectionEv                      
000014ad  _ZN7MPU605015getAccelerationEPsS0_S0_              
000023bf  _ZN7MPU605015getIntDMPStatusEv                     
00001ef7  _ZN7MPU605015getOTPBankValidEv                     
00000da7  _ZN7MPU605015getSlave4IsDoneEv                     
000008d7  _ZN7MPU605015getSlaveAddressEh                     
0000099f  _ZN7MPU605015getSlaveEnabledEh                     
00001b79  _ZN7MPU605015getSleepEnabledEv                     
000020a3  _ZN7MPU605015getXAccelOffsetEv                     
000020e5  _ZN7MPU605015getYAccelOffsetEv                     
00002127  _ZN7MPU605015getZAccelOffsetEv                     
000024d5  _ZN7MPU605015readMemoryBlockEPhthh                 
00001f17  _ZN7MPU605015setOTPBankValidEb                     
0000090d  _ZN7MPU605015setSlaveAddressEhh                    
000009df  _ZN7MPU605015setSlaveEnabledEhb                    
00001b9f  _ZN7MPU605015setSleepEnabledEb                     
000020cd  _ZN7MPU605015setXAccelOffsetEs                     
0000210f  _ZN7MPU605015setYAccelOffsetEs                     
00002151  _ZN7MPU605015setZAccelOffsetEs                     
000024bd  _ZN7MPU605015writeMemoryByteEh                     
0000150b  _ZN7MPU605016getAccelerationXEv                    
00001535  _ZN7MPU605016getAccelerationYEv                    
0000155f  _ZN7MPU605016getAccelerationZEv                    
000001c3  _ZN7MPU605016getAuxVDDIOLevelEv                    
00002373  _ZN7MPU605016getDMPInt0StatusEv                    
0000234d  _ZN7MPU605016getDMPInt1StatusEv                    
00002327  _ZN7MPU605016getDMPInt2StatusEv                    
00002301  _ZN7MPU605016getDMPInt3StatusEv                    
000022db  _ZN7MPU605016getDMPInt4StatusEv                    
000022af  _ZN7MPU605016getDMPInt5StatusEv                    
0000226f  _ZN7MPU605016getIntDMPEnabledEv                    
00000eb1  _ZN7MPU605016getInterruptModeEv                    
00000bdd  _ZN7MPU605016getSlave4AddressEv                    
00000c5d  _ZN7MPU605016getSlave4EnabledEv                    
0000093b  _ZN7MPU605016getSlaveRegisterEh                    
00001c87  _ZN7MPU605016getWakeFrequencyEv                    
000001e3  _ZN7MPU605016setAuxVDDIOLevelEh                    
00002295  _ZN7MPU605016setIntDMPEnabledEb                    
00000ed7  _ZN7MPU605016setInterruptModeEb                    
00000bf9  _ZN7MPU605016setSlave4AddressEh                    
00000c83  _ZN7MPU605016setSlave4EnabledEb                    
00000971  _ZN7MPU605016setSlaveRegisterEhh                   
00001cab  _ZN7MPU605016setWakeFrequencyEh                    
00001b0f  _ZN7MPU605016switchSPIEnabledEb                    
000025bd  _ZN7MPU605016writeMemoryBlockEPKhthhbb             
00000311  _ZN7MPU605017getAccelXSelfTestEv                   
00000351  _ZN7MPU605017getAccelYSelfTestEv                   
00000391  _ZN7MPU605017getAccelZSelfTestEv                   
00000ef1  _ZN7MPU605017getInterruptDriveEv                   
00000f31  _ZN7MPU605017getInterruptLatchEv                   
00000c11  _ZN7MPU605017getSlave4RegisterEv                   
00000a85  _ZN7MPU605017getSlaveWriteModeEh                   
00000337  _ZN7MPU605017setAccelXSelfTestEb                   
00000377  _ZN7MPU605017setAccelYSelfTestEb                   
000003b7  _ZN7MPU605017setAccelZSelfTestEb                   
00000f17  _ZN7MPU605017setInterruptDriveEb                   
00000f57  _ZN7MPU605017setInterruptLatchEb                   
00000c2d  _ZN7MPU605017setSlave4RegisterEh                   
00000ac5  _ZN7MPU605017setSlaveWriteModeEhb                  
000012af  _ZN7MPU605018getIntMotionStatusEv                  
00000dcd  _ZN7MPU605018getLostArbitrationEv                  
00000d65  _ZN7MPU605018getSlate4InputByteEv                  
00000ce1  _ZN7MPU605018getSlave4WriteModeEv                  
00000b65  _ZN7MPU605018getSlaveDataLengthEh                  
00000591  _ZN7MPU605018getTempFIFOEnabledEv                  
00002169  _ZN7MPU605018getXGyroOffsetUserEv                  
000021ab  _ZN7MPU605018getYGyroOffsetUserEv                  
000021ed  _ZN7MPU605018getZGyroOffsetUserEv                  
00001989  _ZN7MPU605018resetGyroscopePathEv                  
00000d09  _ZN7MPU605018setSlave4WriteModeEb                  
00000ba9  _ZN7MPU605018setSlaveDataLengthEhh                 
000018c7  _ZN7MPU605018setSlaveOutputByteEhh                 
000005b7  _ZN7MPU605018setTempFIFOEnabledEb                  
00002193  _ZN7MPU605018setXGyroOffsetUserEs                  
000021d5  _ZN7MPU605018setYGyroOffsetUserEs                  
00002217  _ZN7MPU605018setZGyroOffsetUserEs                  
00000691  _ZN7MPU605019getAccelFIFOEnabledEv                 
00001035  _ZN7MPU605019getI2CBypassEnabledEv                 
00001129  _ZN7MPU605019getIntMotionEnabledEv                 
00000895  _ZN7MPU605019getMasterClockSpeedEv                 
00001bb9  _ZN7MPU605019getWakeCycleEnabledEv                 
000005d1  _ZN7MPU605019getXGyroFIFOEnabledEv                 
00000611  _ZN7MPU605019getYGyroFIFOEnabledEv                 
00000651  _ZN7MPU605019getZGyroFIFOEnabledEv                 
000006b7  _ZN7MPU605019setAccelFIFOEnabledEb                 
0000105b  _ZN7MPU605019setI2CBypassEnabledEb                 
0000114f  _ZN7MPU605019setIntMotionEnabledEb                 
000008b9  _ZN7MPU605019setMasterClockSpeedEh                 
00000c45  _ZN7MPU605019setSlave4OutputByteEh                 
00001bdf  _ZN7MPU605019setWakeCycleEnabledEb                 
000005f7  _ZN7MPU605019setXGyroFIFOEnabledEb                 
00000637  _ZN7MPU605019setYGyroFIFOEnabledEb                 
00000677  _ZN7MPU605019setZGyroFIFOEnabledEb                 
0000024b  _ZN7MPU605020getExternalFrameSyncEv                
00001289  _ZN7MPU605020getIntFreefallStatusEv                
00002399  _ZN7MPU605020getIntPLLReadyStatusEv                
00000d81  _ZN7MPU605020getPassthroughStatusEv                
00000755  _ZN7MPU605020getSlave0FIFOEnabledEv                
00000711  _ZN7MPU605020getSlave1FIFOEnabledEv                
000006d1  _ZN7MPU605020getSlave2FIFOEnabledEv                
00000815  _ZN7MPU605020getSlave3FIFOEnabledEv                
00000d23  _ZN7MPU605020getSlave4MasterDelayEv                
00001931  _ZN7MPU605020getSlaveDelayEnabledEh                
00000a15  _ZN7MPU605020getSlaveWordByteSwapEh                
00001bf9  _ZN7MPU605020getTempSensorEnabledEv                
000019b1  _ZN7MPU605020resetTemperaturePathEv                
0000026f  _ZN7MPU605020setExternalFrameSyncEh                
0000077b  _ZN7MPU605020setSlave0FIFOEnabledEb                
00000737  _ZN7MPU605020setSlave1FIFOEnabledEb                
000006f7  _ZN7MPU605020setSlave2FIFOEnabledEb                
0000083b  _ZN7MPU605020setSlave3FIFOEnabledEb                
00000d47  _ZN7MPU605020setSlave4MasterDelayEh                
00001969  _ZN7MPU605020setSlaveDelayEnabledEhb               
00000a55  _ZN7MPU605020setSlaveWordByteSwapEhb               
00001c1f  _ZN7MPU605020setTempSensorEnabledEb                
00002727  _ZN7MPU605020writeProgMemoryBlockEPKhthhb          
00001075  _ZN7MPU605021getClockOutputEnabledEv               
00001729  _ZN7MPU605021getExternalSensorByteEi               
0000174b  _ZN7MPU605021getExternalSensorWordEi               
000002cf  _ZN7MPU605021getFullScaleGyroRangeEv               
00001347  _ZN7MPU605021getIntDataReadyStatusEv               
000010e9  _ZN7MPU605021getIntFreefallEnabledEv               
00001321  _ZN7MPU605021getIntI2CMasterStatusEv               
0000222f  _ZN7MPU605021getIntPLLReadyEnabledEv               
00000795  _ZN7MPU605021getMultiMasterEnabledEv               
000017bd  _ZN7MPU605021getXNegMotionDetectedEv               
000017e3  _ZN7MPU605021getXPosMotionDetectedEv               
00001809  _ZN7MPU605021getYNegMotionDetectedEv               
0000182f  _ZN7MPU605021getYPosMotionDetectedEv               
00001855  _ZN7MPU605021getZNegMotionDetectedEv               
0000187b  _ZN7MPU605021getZPosMotionDetectedEv               
000018a1  _ZN7MPU605021getZeroMotionDetectedEv               
0000109b  _ZN7MPU605021setClockOutputEnabledEb               
000002f3  _ZN7MPU605021setFullScaleGyroRangeEh               
0000110f  _ZN7MPU605021setIntFreefallEnabledEb               
00002255  _ZN7MPU605021setIntPLLReadyEnabledEb               
00002489  _ZN7MPU605021setMemoryStartAddressEh               
000007bb  _ZN7MPU605021setMultiMasterEnabledEb               
0000177b  _ZN7MPU605022getExternalSensorDWordEi              
00000fb5  _ZN7MPU605022getFSyncInterruptLevelEv              
000003d1  _ZN7MPU605022getFullScaleAccelRangeEv              
0000122d  _ZN7MPU605022getIntDataReadyEnabledEv              
000011e9  _ZN7MPU605022getIntI2CMasterEnabledEv              
000012d5  _ZN7MPU605022getIntZeroMotionStatusEv              
00000f75  _ZN7MPU605022getInterruptLatchClearEv              
00001d8d  _ZN7MPU605022getStandbyXGyroEnabledEv              
00001dcd  _ZN7MPU605022getStandbyYGyroEnabledEv              
00001e0d  _ZN7MPU605022getStandbyZGyroEnabledEv              
0000199d  _ZN7MPU605022resetAccelerometerPathEv              
00000fdb  _ZN7MPU605022setFSyncInterruptLevelEb              
000003f5  _ZN7MPU605022setFullScaleAccelRangeEh              
00001253  _ZN7MPU605022setIntDataReadyEnabledEb              
0000120f  _ZN7MPU605022setIntI2CMasterEnabledEb              
00000f9b  _ZN7MPU605022setInterruptLatchClearEb              
00001db3  _ZN7MPU605022setStandbyXGyroEnabledEb              
00001df3  _ZN7MPU605022setStandbyYGyroEnabledEb              
00001e33  _ZN7MPU605022setStandbyZGyroEnabledEb              
00001acf  _ZN7MPU605023getI2CMasterModeEnabledEv             
00001169  _ZN7MPU605023getIntZeroMotionEnabledEv             
00000af5  _ZN7MPU605023getSlaveWordGroupOffsetEh             
00001cc9  _ZN7MPU605023getStandbyXAccelEnabledEv             
00001d09  _ZN7MPU605023getStandbyYAccelEnabledEv             
00001d4d  _ZN7MPU605023getStandbyZAccelEnabledEv             
00001af5  _ZN7MPU605023setI2CMasterModeEnabledEb             
0000118f  _ZN7MPU605023setIntZeroMotionEnabledEb             
00000b35  _ZN7MPU605023setSlaveWordGroupOffsetEhb            
00001cef  _ZN7MPU605023setStandbyXAccelEnabledEb             
00001d2f  _ZN7MPU605023setStandbyYAccelEnabledEb             
00001d73  _ZN7MPU605023setStandbyZAccelEnabledEb             
00000ff5  _ZN7MPU605024getFSyncInterruptEnabledEv            
0000101b  _ZN7MPU605024setFSyncInterruptEnabledEb            
0000275b  _ZN7MPU605024writeDMPConfigurationSetEPKhtb        
00000c9d  _ZN7MPU605025getSlave4InterruptEnabledEv           
00000cc3  _ZN7MPU605025setSlave4InterruptEnabledEb           
000004f5  _ZN7MPU605026getMotionDetectionDurationEv          
00000511  _ZN7MPU605026setMotionDetectionDurationEh          
000004c1  _ZN7MPU605027getMotionDetectionThresholdEv         
000004dd  _ZN7MPU605027setMotionDetectionThresholdEh         
000019c5  _ZN7MPU605028getAccelerometerPowerOnDelayEv        
0000048d  _ZN7MPU605028getFreefallDetectionDurationEv        
000019e9  _ZN7MPU605028setAccelerometerPowerOnDelayEh        
000004a9  _ZN7MPU605028setFreefallDetectionDurationEh        
0000283f  _ZN7MPU605028writeProgDMPConfigurationSetEPKht     
000018f1  _ZN7MPU605029getExternalShadowDelayEnabledEv       
00000455  _ZN7MPU605029getFreefallDetectionThresholdEv       
00001917  _ZN7MPU605029setExternalShadowDelayEnabledEb       
00000471  _ZN7MPU605029setFreefallDetectionThresholdEh       
000012fb  _ZN7MPU605030getIntFIFOBufferOverflowStatusEv      
0000055d  _ZN7MPU605030getZeroMotionDetectionDurationEv      
00000579  _ZN7MPU605030setZeroMotionDetectionDurationEh      
000011a9  _ZN7MPU605031getIntFIFOBufferOverflowEnabledEv     
000007d5  _ZN7MPU605031getWaitForExternalSensorEnabledEv     
00000529  _ZN7MPU605031getZeroMotionDetectionThresholdEv     
000011cf  _ZN7MPU605031setIntFIFOBufferOverflowEnabledEb     
000007fb  _ZN7MPU605031setWaitForExternalSensorEnabledEb     
00000545  _ZN7MPU605031setZeroMotionDetectionThresholdEh     
00001a49  _ZN7MPU605034getMotionDetectionCounterDecrementEv  
00000855  _ZN7MPU605034getSlaveReadWriteTransitionEnabledEv  
00001a71  _ZN7MPU605034setMotionDetectionCounterDecrementEh  
0000087b  _ZN7MPU605034setSlaveReadWriteTransitionEnabledEb  
00001a07  _ZN7MPU605036getFreefallDetectionCounterDecrementEv
00001a2b  _ZN7MPU605036setFreefallDetectionCounterDecrementEh
000001b1  _ZN7MPU60503ISREt                                  
00001b65  _ZN7MPU60505resetEv                                
00001689  _ZN7MPU60506getMagEPsS0_S0_                        
000001fd  _ZN7MPU60507getRateEv                              
00000219  _ZN7MPU60507setRateEh                              
00002425  _ZN7MPU60508resetDMPEv                             
00001b29  _ZN7MPU60509resetFIFOEv                            
00000159  _ZN7MPU6050C1Eh                                    
00000145  _ZN7MPU6050C1Ev                                    
00000159  _ZN7MPU6050C2Eh                                    
00000145  _ZN7MPU6050C2Ev                                    
00004e7d  _ZN7UART_A010sendStringEPc                         
00004ea5  _ZN7UART_A08sendCharEc                             
00004e35  _ZN7UART_A0C1Ev                                    
00004e35  _ZN7UART_A0C2Ev                                    
20000528  _Zero                                              
20010000  __STACK_END                                        
00000200  __STACK_SIZE                                       
00000400  __SYSMEM_SIZE                                      
000058f8  __TI_CINIT_Base                                    
00005908  __TI_CINIT_Limit                                   
000058e4  __TI_Handler_Table_Base                            
000058f0  __TI_Handler_Table_Limit                           
00005105  __TI_auto_init                                     
20000544  __TI_cleanup_ptr                                   
00005761  __TI_decompress_none                               
00005789  __TI_decompress_rle24                              
20000548  __TI_dtors_ptr                                     
00003679  __TI_printfi                                       
00000000  __TI_static_base__                                 
0000577d  __TI_zero_init                                     
00004f7d  __aeabi_cdcmpeq                                    
00004f7d  __aeabi_cdcmple                                    
00005003  __aeabi_cdrcmple                                   
0000549d  __aeabi_d2iz                                       
00004887  __aeabi_dadd                                       
00004a33  __aeabi_ddiv                                       
00004c79  __aeabi_dmul                                       
0000487d  __aeabi_dsub                                       
000055fd  __aeabi_i2d                                        
00005089  __aeabi_memclr                                     
00005089  __aeabi_memclr4                                    
00005089  __aeabi_memclr8                                    
00004ee1  __aeabi_memcpy                                     
00004ee1  __aeabi_memcpy4                                    
00004ee1  __aeabi_memcpy8                                    
0000508b  __aeabi_memset                                     
0000508b  __aeabi_memset4                                    
0000508b  __aeabi_memset8                                    
00004689  __aeabi_uldivmod                                   
ffffffff  __binit__                                          
ffffffff  __c_args__                                         
2000fe00  __stack                                            
000045f5  __sti___8_main_cpp_70058f14                        
00005709  _args_main                                         
000053b5  _c_int00                                           
00005792  _ctypes_                                           
2000053c  _lock                                              
00005747  _nop                                               
0000573f  _register_lock                                     
00005739  _register_unlock                                   
20000000  _sys_memory                                        
0000578f  _system_pre_init                                   
20000540  _unlock                                            
000054e9  abort                                              
20000592  accelgyro                                          
00005405  atoi                                               
200005a4  ax                                                 
200005a6  ay                                                 
200005a8  az                                                 
ffffffff  binit                                              
00004441  calloc                                             
00005451  copy_in                                            
2000055e  debugOutput                                        
000054f1  exit                                               
00005569  feraiseexcept                                      
0000418f  free                                               
00005659  frexp                                              
200005aa  gx                                                 
200005ac  gy                                                 
200005ae  gz                                                 
200005a1  i2cdev                                             
00000000  interruptVectors                                   
200005a3  isrComplete_                                       
00005363  ldexp                                              
0000530d  ltoa                                               
00004475  main                                               
20000558  main_func_sp                                       
00004127  malloc                                             
0000435d  memalign                                           
000056a5  memccpy                                            
00005683  memcmp                                             
00004ee1  memcpy                                             
00005091  memset                                             
00004099  minit                                              
0000562b  raise                                              
00004251  realloc                                            
200005b0  rxbuf                                              
00005529  signal                                             
000052ad  sprintf                                            
00005721  strchr                                             
0000574d  strlen                                             
200005b1  testVar                                            
200005b2  txbuf                                              
200005a2  uartA0                                             


GLOBAL SYMBOLS: SORTED BY Symbol Address 

address   name                                               
-------   ----                                               
00000000  __TI_static_base__                                 
00000000  interruptVectors                                   
00000145  _ZN7MPU6050C1Ev                                    
00000145  _ZN7MPU6050C2Ev                                    
00000159  _ZN7MPU6050C1Eh                                    
00000159  _ZN7MPU6050C2Eh                                    
00000175  _ZN7MPU605010initializeEv                          
0000019b  _ZN7MPU605014testConnectionEv                      
000001b1  _ZN7MPU60503ISREt                                  
000001c3  _ZN7MPU605016getAuxVDDIOLevelEv                    
000001e3  _ZN7MPU605016setAuxVDDIOLevelEh                    
000001fd  _ZN7MPU60507getRateEv                              
00000200  __STACK_SIZE                                       
00000219  _ZN7MPU60507setRateEh                              
00000231  _ZN7MPU605014checkMagStatusEv                      
0000024b  _ZN7MPU605020getExternalFrameSyncEv                
0000026f  _ZN7MPU605020setExternalFrameSyncEh                
0000028d  _ZN7MPU605011getDLPFModeEv                         
000002b1  _ZN7MPU605011setDLPFModeEh                         
000002cf  _ZN7MPU605021getFullScaleGyroRangeEv               
000002f3  _ZN7MPU605021setFullScaleGyroRangeEh               
00000311  _ZN7MPU605017getAccelXSelfTestEv                   
00000337  _ZN7MPU605017setAccelXSelfTestEb                   
00000351  _ZN7MPU605017getAccelYSelfTestEv                   
00000377  _ZN7MPU605017setAccelYSelfTestEb                   
00000391  _ZN7MPU605017getAccelZSelfTestEv                   
000003b7  _ZN7MPU605017setAccelZSelfTestEb                   
000003d1  _ZN7MPU605022getFullScaleAccelRangeEv              
000003f5  _ZN7MPU605022setFullScaleAccelRangeEh              
00000400  __SYSMEM_SIZE                                      
00000413  _ZN7MPU605011getDHPFModeEv                         
00000437  _ZN7MPU605011setDHPFModeEh                         
00000455  _ZN7MPU605029getFreefallDetectionThresholdEv       
00000471  _ZN7MPU605029setFreefallDetectionThresholdEh       
0000048d  _ZN7MPU605028getFreefallDetectionDurationEv        
000004a9  _ZN7MPU605028setFreefallDetectionDurationEh        
000004c1  _ZN7MPU605027getMotionDetectionThresholdEv         
000004dd  _ZN7MPU605027setMotionDetectionThresholdEh         
000004f5  _ZN7MPU605026getMotionDetectionDurationEv          
00000511  _ZN7MPU605026setMotionDetectionDurationEh          
00000529  _ZN7MPU605031getZeroMotionDetectionThresholdEv     
00000545  _ZN7MPU605031setZeroMotionDetectionThresholdEh     
0000055d  _ZN7MPU605030getZeroMotionDetectionDurationEv      
00000579  _ZN7MPU605030setZeroMotionDetectionDurationEh      
00000591  _ZN7MPU605018getTempFIFOEnabledEv                  
000005b7  _ZN7MPU605018setTempFIFOEnabledEb                  
000005d1  _ZN7MPU605019getXGyroFIFOEnabledEv                 
000005f7  _ZN7MPU605019setXGyroFIFOEnabledEb                 
00000611  _ZN7MPU605019getYGyroFIFOEnabledEv                 
00000637  _ZN7MPU605019setYGyroFIFOEnabledEb                 
00000651  _ZN7MPU605019getZGyroFIFOEnabledEv                 
00000677  _ZN7MPU605019setZGyroFIFOEnabledEb                 
00000691  _ZN7MPU605019getAccelFIFOEnabledEv                 
000006b7  _ZN7MPU605019setAccelFIFOEnabledEb                 
000006d1  _ZN7MPU605020getSlave2FIFOEnabledEv                
000006f7  _ZN7MPU605020setSlave2FIFOEnabledEb                
00000711  _ZN7MPU605020getSlave1FIFOEnabledEv                
00000737  _ZN7MPU605020setSlave1FIFOEnabledEb                
00000755  _ZN7MPU605020getSlave0FIFOEnabledEv                
0000077b  _ZN7MPU605020setSlave0FIFOEnabledEb                
00000795  _ZN7MPU605021getMultiMasterEnabledEv               
000007bb  _ZN7MPU605021setMultiMasterEnabledEb               
000007d5  _ZN7MPU605031getWaitForExternalSensorEnabledEv     
000007fb  _ZN7MPU605031setWaitForExternalSensorEnabledEb     
00000815  _ZN7MPU605020getSlave3FIFOEnabledEv                
0000083b  _ZN7MPU605020setSlave3FIFOEnabledEb                
00000855  _ZN7MPU605034getSlaveReadWriteTransitionEnabledEv  
0000087b  _ZN7MPU605034setSlaveReadWriteTransitionEnabledEb  
00000895  _ZN7MPU605019getMasterClockSpeedEv                 
000008b9  _ZN7MPU605019setMasterClockSpeedEh                 
000008d7  _ZN7MPU605015getSlaveAddressEh                     
0000090d  _ZN7MPU605015setSlaveAddressEhh                    
0000093b  _ZN7MPU605016getSlaveRegisterEh                    
00000971  _ZN7MPU605016setSlaveRegisterEhh                   
0000099f  _ZN7MPU605015getSlaveEnabledEh                     
000009df  _ZN7MPU605015setSlaveEnabledEhb                    
00000a15  _ZN7MPU605020getSlaveWordByteSwapEh                
00000a55  _ZN7MPU605020setSlaveWordByteSwapEhb               
00000a85  _ZN7MPU605017getSlaveWriteModeEh                   
00000ac5  _ZN7MPU605017setSlaveWriteModeEhb                  
00000af5  _ZN7MPU605023getSlaveWordGroupOffsetEh             
00000b35  _ZN7MPU605023setSlaveWordGroupOffsetEhb            
00000b65  _ZN7MPU605018getSlaveDataLengthEh                  
00000ba9  _ZN7MPU605018setSlaveDataLengthEhh                 
00000bdd  _ZN7MPU605016getSlave4AddressEv                    
00000bf9  _ZN7MPU605016setSlave4AddressEh                    
00000c11  _ZN7MPU605017getSlave4RegisterEv                   
00000c2d  _ZN7MPU605017setSlave4RegisterEh                   
00000c45  _ZN7MPU605019setSlave4OutputByteEh                 
00000c5d  _ZN7MPU605016getSlave4EnabledEv                    
00000c83  _ZN7MPU605016setSlave4EnabledEb                    
00000c9d  _ZN7MPU605025getSlave4InterruptEnabledEv           
00000cc3  _ZN7MPU605025setSlave4InterruptEnabledEb           
00000ce1  _ZN7MPU605018getSlave4WriteModeEv                  
00000d09  _ZN7MPU605018setSlave4WriteModeEb                  
00000d23  _ZN7MPU605020getSlave4MasterDelayEv                
00000d47  _ZN7MPU605020setSlave4MasterDelayEh                
00000d65  _ZN7MPU605018getSlate4InputByteEv                  
00000d81  _ZN7MPU605020getPassthroughStatusEv                
00000da7  _ZN7MPU605015getSlave4IsDoneEv                     
00000dcd  _ZN7MPU605018getLostArbitrationEv                  
00000df3  _ZN7MPU605013getSlave4NackEv                       
00000e19  _ZN7MPU605013getSlave3NackEv                       
00000e3f  _ZN7MPU605013getSlave2NackEv                       
00000e65  _ZN7MPU605013getSlave1NackEv                       
00000e8b  _ZN7MPU605013getSlave0NackEv                       
00000eb1  _ZN7MPU605016getInterruptModeEv                    
00000ed7  _ZN7MPU605016setInterruptModeEb                    
00000ef1  _ZN7MPU605017getInterruptDriveEv                   
00000f17  _ZN7MPU605017setInterruptDriveEb                   
00000f31  _ZN7MPU605017getInterruptLatchEv                   
00000f57  _ZN7MPU605017setInterruptLatchEb                   
00000f75  _ZN7MPU605022getInterruptLatchClearEv              
00000f9b  _ZN7MPU605022setInterruptLatchClearEb              
00000fb5  _ZN7MPU605022getFSyncInterruptLevelEv              
00000fdb  _ZN7MPU605022setFSyncInterruptLevelEb              
00000ff5  _ZN7MPU605024getFSyncInterruptEnabledEv            
0000101b  _ZN7MPU605024setFSyncInterruptEnabledEb            
00001035  _ZN7MPU605019getI2CBypassEnabledEv                 
0000105b  _ZN7MPU605019setI2CBypassEnabledEb                 
00001075  _ZN7MPU605021getClockOutputEnabledEv               
0000109b  _ZN7MPU605021setClockOutputEnabledEb               
000010b5  _ZN7MPU605013getIntEnabledEv                       
000010d1  _ZN7MPU605013setIntEnabledEh                       
000010e9  _ZN7MPU605021getIntFreefallEnabledEv               
0000110f  _ZN7MPU605021setIntFreefallEnabledEb               
00001129  _ZN7MPU605019getIntMotionEnabledEv                 
0000114f  _ZN7MPU605019setIntMotionEnabledEb                 
00001169  _ZN7MPU605023getIntZeroMotionEnabledEv             
0000118f  _ZN7MPU605023setIntZeroMotionEnabledEb             
000011a9  _ZN7MPU605031getIntFIFOBufferOverflowEnabledEv     
000011cf  _ZN7MPU605031setIntFIFOBufferOverflowEnabledEb     
000011e9  _ZN7MPU605022getIntI2CMasterEnabledEv              
0000120f  _ZN7MPU605022setIntI2CMasterEnabledEb              
0000122d  _ZN7MPU605022getIntDataReadyEnabledEv              
00001253  _ZN7MPU605022setIntDataReadyEnabledEb              
0000126d  _ZN7MPU605012getIntStatusEv                        
00001289  _ZN7MPU605020getIntFreefallStatusEv                
000012af  _ZN7MPU605018getIntMotionStatusEv                  
000012d5  _ZN7MPU605022getIntZeroMotionStatusEv              
000012fb  _ZN7MPU605030getIntFIFOBufferOverflowStatusEv      
00001321  _ZN7MPU605021getIntI2CMasterStatusEv               
00001347  _ZN7MPU605021getIntDataReadyStatusEv               
0000136d  _ZN7MPU605010getMotion9EPsS0_S0_S0_S0_S0_S0_S0_S0_ 
00001425  _ZN7MPU605010getMotion6EPsS0_S0_S0_S0_S0_          
000014ad  _ZN7MPU605015getAccelerationEPsS0_S0_              
0000150b  _ZN7MPU605016getAccelerationXEv                    
00001535  _ZN7MPU605016getAccelerationYEv                    
0000155f  _ZN7MPU605016getAccelerationZEv                    
00001589  _ZN7MPU605014getTemperatureEv                      
000015b3  _ZN7MPU605011getRotationEPsS0_S0_                  
0000160b  _ZN7MPU605012getRotationXEv                        
00001635  _ZN7MPU605012getRotationYEv                        
0000165f  _ZN7MPU605012getRotationZEv                        
00001689  _ZN7MPU60506getMagEPsS0_S0_                        
00001729  _ZN7MPU605021getExternalSensorByteEi               
0000174b  _ZN7MPU605021getExternalSensorWordEi               
0000177b  _ZN7MPU605022getExternalSensorDWordEi              
000017bd  _ZN7MPU605021getXNegMotionDetectedEv               
000017e3  _ZN7MPU605021getXPosMotionDetectedEv               
00001809  _ZN7MPU605021getYNegMotionDetectedEv               
0000182f  _ZN7MPU605021getYPosMotionDetectedEv               
00001855  _ZN7MPU605021getZNegMotionDetectedEv               
0000187b  _ZN7MPU605021getZPosMotionDetectedEv               
000018a1  _ZN7MPU605021getZeroMotionDetectedEv               
000018c7  _ZN7MPU605018setSlaveOutputByteEhh                 
000018f1  _ZN7MPU605029getExternalShadowDelayEnabledEv       
00001917  _ZN7MPU605029setExternalShadowDelayEnabledEb       
00001931  _ZN7MPU605020getSlaveDelayEnabledEh                
00001969  _ZN7MPU605020setSlaveDelayEnabledEhb               
00001989  _ZN7MPU605018resetGyroscopePathEv                  
0000199d  _ZN7MPU605022resetAccelerometerPathEv              
000019b1  _ZN7MPU605020resetTemperaturePathEv                
000019c5  _ZN7MPU605028getAccelerometerPowerOnDelayEv        
000019e9  _ZN7MPU605028setAccelerometerPowerOnDelayEh        
00001a07  _ZN7MPU605036getFreefallDetectionCounterDecrementEv
00001a2b  _ZN7MPU605036setFreefallDetectionCounterDecrementEh
00001a49  _ZN7MPU605034getMotionDetectionCounterDecrementEv  
00001a71  _ZN7MPU605034setMotionDetectionCounterDecrementEh  
00001a8f  _ZN7MPU605014getFIFOEnabledEv                      
00001ab5  _ZN7MPU605014setFIFOEnabledEb                      
00001acf  _ZN7MPU605023getI2CMasterModeEnabledEv             
00001af5  _ZN7MPU605023setI2CMasterModeEnabledEb             
00001b0f  _ZN7MPU605016switchSPIEnabledEb                    
00001b29  _ZN7MPU60509resetFIFOEv                            
00001b3d  _ZN7MPU605014resetI2CMasterEv                      
00001b51  _ZN7MPU605012resetSensorsEv                        
00001b65  _ZN7MPU60505resetEv                                
00001b79  _ZN7MPU605015getSleepEnabledEv                     
00001b9f  _ZN7MPU605015setSleepEnabledEb                     
00001bb9  _ZN7MPU605019getWakeCycleEnabledEv                 
00001bdf  _ZN7MPU605019setWakeCycleEnabledEb                 
00001bf9  _ZN7MPU605020getTempSensorEnabledEv                
00001c1f  _ZN7MPU605020setTempSensorEnabledEb                
00001c45  _ZN7MPU605014getClockSourceEv                      
00001c69  _ZN7MPU605014setClockSourceEh                      
00001c87  _ZN7MPU605016getWakeFrequencyEv                    
00001cab  _ZN7MPU605016setWakeFrequencyEh                    
00001cc9  _ZN7MPU605023getStandbyXAccelEnabledEv             
00001cef  _ZN7MPU605023setStandbyXAccelEnabledEb             
00001d09  _ZN7MPU605023getStandbyYAccelEnabledEv             
00001d2f  _ZN7MPU605023setStandbyYAccelEnabledEb             
00001d4d  _ZN7MPU605023getStandbyZAccelEnabledEv             
00001d73  _ZN7MPU605023setStandbyZAccelEnabledEb             
00001d8d  _ZN7MPU605022getStandbyXGyroEnabledEv              
00001db3  _ZN7MPU605022setStandbyXGyroEnabledEb              
00001dcd  _ZN7MPU605022getStandbyYGyroEnabledEv              
00001df3  _ZN7MPU605022setStandbyYGyroEnabledEb              
00001e0d  _ZN7MPU605022getStandbyZGyroEnabledEv              
00001e33  _ZN7MPU605022setStandbyZGyroEnabledEb              
00001e4d  _ZN7MPU605012getFIFOCountEv                        
00001e77  _ZN7MPU605011getFIFOByteEv                         
00001e93  _ZN7MPU605011setFIFOByteEh                         
00001eab  _ZN7MPU605012getFIFOBytesEPhh                      
00001ed3  _ZN7MPU605011getDeviceIDEv                         
00001ef7  _ZN7MPU605015getOTPBankValidEv                     
00001f17  _ZN7MPU605015setOTPBankValidEb                     
00001f31  _ZN7MPU605014getXGyroOffsetEv                      
00001f57  _ZN7MPU605014setXGyroOffsetEa                      
00001f75  _ZN7MPU605014getYGyroOffsetEv                      
00001f9b  _ZN7MPU605014setYGyroOffsetEa                      
00001fb9  _ZN7MPU605014getZGyroOffsetEv                      
00001fdf  _ZN7MPU605014setZGyroOffsetEa                      
00002001  _ZN7MPU605012getXFineGainEv                        
0000201f  _ZN7MPU605012setXFineGainEa                        
00002037  _ZN7MPU605012getYFineGainEv                        
00002055  _ZN7MPU605012setYFineGainEa                        
0000206d  _ZN7MPU605012getZFineGainEv                        
0000208b  _ZN7MPU605012setZFineGainEa                        
000020a3  _ZN7MPU605015getXAccelOffsetEv                     
000020cd  _ZN7MPU605015setXAccelOffsetEs                     
000020e5  _ZN7MPU605015getYAccelOffsetEv                     
0000210f  _ZN7MPU605015setYAccelOffsetEs                     
00002127  _ZN7MPU605015getZAccelOffsetEv                     
00002151  _ZN7MPU605015setZAccelOffsetEs                     
00002169  _ZN7MPU605018getXGyroOffsetUserEv                  
00002193  _ZN7MPU605018setXGyroOffsetUserEs                  
000021ab  _ZN7MPU605018getYGyroOffsetUserEv                  
000021d5  _ZN7MPU605018setYGyroOffsetUserEs                  
000021ed  _ZN7MPU605018getZGyroOffsetUserEv                  
00002217  _ZN7MPU605018setZGyroOffsetUserEs                  
0000222f  _ZN7MPU605021getIntPLLReadyEnabledEv               
00002255  _ZN7MPU605021setIntPLLReadyEnabledEb               
0000226f  _ZN7MPU605016getIntDMPEnabledEv                    
00002295  _ZN7MPU605016setIntDMPEnabledEb                    
000022af  _ZN7MPU605016getDMPInt5StatusEv                    
000022db  _ZN7MPU605016getDMPInt4StatusEv                    
00002301  _ZN7MPU605016getDMPInt3StatusEv                    
00002327  _ZN7MPU605016getDMPInt2StatusEv                    
0000234d  _ZN7MPU605016getDMPInt1StatusEv                    
00002373  _ZN7MPU605016getDMPInt0StatusEv                    
00002399  _ZN7MPU605020getIntPLLReadyStatusEv                
000023bf  _ZN7MPU605015getIntDMPStatusEv                     
000023e5  _ZN7MPU605013getDMPEnabledEv                       
0000240b  _ZN7MPU605013setDMPEnabledEb                       
00002425  _ZN7MPU60508resetDMPEv                             
00002439  _ZN7MPU605013setMemoryBankEhbb                     
00002489  _ZN7MPU605021setMemoryStartAddressEh               
000024a1  _ZN7MPU605014readMemoryByteEv                      
000024bd  _ZN7MPU605015writeMemoryByteEh                     
000024d5  _ZN7MPU605015readMemoryBlockEPhthh                 
000025bd  _ZN7MPU605016writeMemoryBlockEPKhthhbb             
00002727  _ZN7MPU605020writeProgMemoryBlockEPKhthhb          
0000275b  _ZN7MPU605024writeDMPConfigurationSetEPKhtb        
0000283f  _ZN7MPU605028writeProgDMPConfigurationSetEPKht     
00002859  _ZN7MPU605013getDMPConfig1Ev                       
00002875  _ZN7MPU605013setDMPConfig1Eh                       
0000288d  _ZN7MPU605013getDMPConfig2Ev                       
000028a9  _ZN7MPU605013setDMPConfig2Eh                       
00003679  __TI_printfi                                       
00003981  _ZN6I2CdevC1Ev                                     
00003981  _ZN6I2CdevC2Ev                                     
000039cd  _ZN6I2Cdev3ISREt                                   
00003a37  _ZN6I2Cdev7readBitEhhhPht                          
00003a77  _ZN6I2Cdev8readBitWEhhhPtt                         
00003ab7  _ZN6I2Cdev8readBitsEhhhhPht                        
00003b35  _ZN6I2Cdev9readBitsWEhhhhPtt                       
00003bb3  _ZN6I2Cdev8readByteEhhPht                          
00003be1  _ZN6I2Cdev8readWordEhhPtt                          
00003c0f  _ZN6I2Cdev9readBytesEhhhPht                        
00003c3d  _ZN6I2Cdev9readWordsEhhhPtt                        
00003d51  _ZN6I2Cdev8writeBitEhhhh                           
00003daf  _ZN6I2Cdev9writeBitWEhhht                          
00003e0f  _ZN6I2Cdev9writeBitsEhhhhh                         
00003ea1  _ZN6I2Cdev10writeBitsWEhhhht                       
00003f33  _ZN6I2Cdev9writeByteEhhh                           
00003f55  _ZN6I2Cdev9writeWordEhht                           
00003f77  _ZN6I2Cdev10writeBytesEhhhPh                       
00003fb5  _ZN6I2Cdev10writeWordsEhhhPt                       
00004099  minit                                              
00004127  malloc                                             
0000418f  free                                               
00004251  realloc                                            
0000435d  memalign                                           
00004441  calloc                                             
00004475  main                                               
0000454b  _Z20MPU9150_setupCompassv                          
000045f5  __sti___8_main_cpp_70058f14                        
00004689  __aeabi_uldivmod                                   
0000487d  __aeabi_dsub                                       
00004887  __aeabi_dadd                                       
00004a33  __aeabi_ddiv                                       
00004b69  _Dscale                                            
00004c79  __aeabi_dmul                                       
00004d75  _Dnorm                                             
00004e35  _ZN7UART_A0C1Ev                                    
00004e35  _ZN7UART_A0C2Ev                                    
00004e7d  _ZN7UART_A010sendStringEPc                         
00004ea5  _ZN7UART_A08sendCharEc                             
00004ee1  __aeabi_memcpy                                     
00004ee1  __aeabi_memcpy4                                    
00004ee1  __aeabi_memcpy8                                    
00004ee1  memcpy                                             
00004f7d  __aeabi_cdcmpeq                                    
00004f7d  __aeabi_cdcmple                                    
00005003  __aeabi_cdrcmple                                   
00005089  __aeabi_memclr                                     
00005089  __aeabi_memclr4                                    
00005089  __aeabi_memclr8                                    
0000508b  __aeabi_memset                                     
0000508b  __aeabi_memset4                                    
0000508b  __aeabi_memset8                                    
00005091  memset                                             
00005105  __TI_auto_init                                     
00005245  _Dunscale                                          
000052ad  sprintf                                            
0000530d  ltoa                                               
00005363  ldexp                                              
000053b5  _c_int00                                           
00005405  atoi                                               
00005451  copy_in                                            
0000549d  __aeabi_d2iz                                       
000054e5  C$$EXIT                                            
000054e9  abort                                              
000054f1  exit                                               
00005529  signal                                             
00005569  feraiseexcept                                      
0000559d  _Dclass                                            
000055cd  _Feraise                                           
000055fd  __aeabi_i2d                                        
0000562b  raise                                              
00005659  frexp                                              
00005683  memcmp                                             
000056a5  memccpy                                            
000056c1  _ZN6I2Cdev11isrCompleteEb                          
000056d9  _ZN6I2Cdev8setRxBufEh                              
000056f1  _ZN6I2Cdev8setTxBufEh                              
00005709  _args_main                                         
00005721  strchr                                             
00005739  _register_unlock                                   
0000573f  _register_lock                                     
00005747  _nop                                               
0000574d  strlen                                             
00005761  __TI_decompress_none                               
00005771  _ZN6I2Cdev8getTxBufEv                              
0000577d  __TI_zero_init                                     
00005789  __TI_decompress_rle24                              
0000578f  _system_pre_init                                   
00005792  _ctypes_                                           
00005894  SHT$$INIT_ARRAY$$Base                              
00005898  SHT$$INIT_ARRAY$$Limit                             
000058e4  __TI_Handler_Table_Base                            
000058f0  __TI_Handler_Table_Limit                           
000058f8  __TI_CINIT_Base                                    
00005908  __TI_CINIT_Limit                                   
20000000  _sys_memory                                        
200004b0  _Denorm                                            
200004c0  _Eps                                               
200004d0  _Hugeval                                           
200004e0  _Inf                                               
200004f0  _Nan                                               
20000500  _Snan                                              
20000510  _Rteps                                             
20000520  _Xbig                                              
20000528  _Zero                                              
2000053c  _lock                                              
20000540  _unlock                                            
20000544  __TI_cleanup_ptr                                   
20000548  __TI_dtors_ptr                                     
2000054c  _Fenv                                              
20000550  _Tls_setup__Fenv                                   
20000554  _Errno                                             
20000558  main_func_sp                                       
2000055c  _ZN6I2Cdev11readTimeoutE                           
2000055e  debugOutput                                        
20000592  accelgyro                                          
200005a1  i2cdev                                             
200005a2  uartA0                                             
200005a3  isrComplete_                                       
200005a4  ax                                                 
200005a6  ay                                                 
200005a8  az                                                 
200005aa  gx                                                 
200005ac  gy                                                 
200005ae  gz                                                 
200005b0  rxbuf                                              
200005b1  testVar                                            
200005b2  txbuf                                              
2000fe00  __stack                                            
20010000  __STACK_END                                        
4000480c  WDTCTL_SYM                                         
ffffffff  __binit__                                          
ffffffff  __c_args__                                         
ffffffff  binit                                              

[404 symbols]
